ARM GAS  C:\Users\Barney\AppData\Local\Temp\ccdvqSFK.s 			page 1


   1              		.syntax unified
   2              		.cpu cortex-m3
   3              		.fpu softvfp
   4              		.eabi_attribute 20, 1
   5              		.eabi_attribute 21, 1
   6              		.eabi_attribute 23, 3
   7              		.eabi_attribute 24, 1
   8              		.eabi_attribute 25, 1
   9              		.eabi_attribute 26, 1
  10              		.eabi_attribute 30, 1
  11              		.eabi_attribute 34, 1
  12              		.eabi_attribute 18, 4
  13              		.thumb
  14              		.syntax unified
  15              		.file	"main.c"
  16              		.text
  17              	.Ltext0:
  18              		.cfi_sections	.debug_frame
  19              		.section	.text.main,"ax",%progbits
  20              		.align	2
  21              		.global	main
  22              		.thumb
  23              		.thumb_func
  24              		.type	main, %function
  25              	main:
  26              	.LFB64:
  27              		.file 1 "main.c"
   1:main.c        **** /* ========================================
   2:main.c        ****  *
   3:main.c        ****  * Copyright YOUR COMPANY, THE YEAR
   4:main.c        ****  * All Rights Reserved
   5:main.c        ****  * UNPUBLISHED, LICENSED SOFTWARE.
   6:main.c        ****  *
   7:main.c        ****  * CONFIDENTIAL AND PROPRIETARY INFORMATION
   8:main.c        ****  * WHICH IS THE PROPERTY OF your company.
   9:main.c        ****  *
  10:main.c        ****  * ========================================
  11:main.c        **** */
  12:main.c        **** #include "project.h"
  13:main.c        **** #include "PCA9685_Custom.h"
  14:main.c        **** 
  15:main.c        **** int main(void)
  16:main.c        **** {
  28              		.loc 1 16 0
  29              		.cfi_startproc
  30              		@ args = 0, pretend = 0, frame = 0
  31              		@ frame_needed = 0, uses_anonymous_args = 0
  32 0000 38B5     		push	{r3, r4, r5, lr}
  33              		.cfi_def_cfa_offset 16
  34              		.cfi_offset 3, -16
  35              		.cfi_offset 4, -12
  36              		.cfi_offset 5, -8
  37              		.cfi_offset 14, -4
  38              	.LBB2:
  17:main.c        ****     while(1){
  18:main.c        ****         CyGlobalIntEnable; /* Enable global interrupts. */
  39              		.loc 1 18 0
ARM GAS  C:\Users\Barney\AppData\Local\Temp\ccdvqSFK.s 			page 2


  40              		.syntax unified
  41              	@ 18 "main.c" 1
  42 0002 62B6     		CPSIE   i
  43              	@ 0 "" 2
  44              	.LVL0:
  19:main.c        ****         uint16_t lowLimit = 300;
  20:main.c        ****         uint16_t highLimit = 400;
  21:main.c        ****         PCA9685_Custom_Begin();
  45              		.loc 1 21 0
  46              		.thumb
  47              		.syntax unified
  48 0004 FFF7FEFF 		bl	PCA9685_Custom_Begin
  49              	.LVL1:
  50              	.LBB3:
  22:main.c        ****         for(uint8_t servo = 0; servo<=5;servo++){
  51              		.loc 1 22 0
  52 0008 0024     		movs	r4, #0
  53 000a 07E0     		b	.L2
  54              	.LVL2:
  55              	.L3:
  23:main.c        ****             PCA9685_Custom_setPWM(servo,0,lowLimit);   
  56              		.loc 1 23 0 discriminator 3
  57 000c 4FF49672 		mov	r2, #300
  58 0010 0021     		movs	r1, #0
  59 0012 2046     		mov	r0, r4
  60 0014 FFF7FEFF 		bl	PCA9685_Custom_setPWM
  61              	.LVL3:
  22:main.c        ****         for(uint8_t servo = 0; servo<=5;servo++){
  62              		.loc 1 22 0 discriminator 3
  63 0018 0134     		adds	r4, r4, #1
  64              	.LVL4:
  65 001a E4B2     		uxtb	r4, r4
  66              	.LVL5:
  67              	.L2:
  22:main.c        ****         for(uint8_t servo = 0; servo<=5;servo++){
  68              		.loc 1 22 0 is_stmt 0 discriminator 1
  69 001c 052C     		cmp	r4, #5
  70 001e F5D9     		bls	.L3
  71              	.LVL6:
  72              	.L9:
  73              	.LBE3:
  74              	.LBB4:
  24:main.c        ****         }
  25:main.c        ****         while(true){
  26:main.c        ****             for (uint8_t servo=0;servo<=5;servo++){
  75              		.loc 1 26 0 is_stmt 1
  76 0020 0025     		movs	r5, #0
  77 0022 21E0     		b	.L4
  78              	.LVL7:
  79              	.L5:
  80              	.LBB5:
  27:main.c        ****                 for(uint16_t i =lowLimit ; i<highLimit;i++){
  28:main.c        ****                     PCA9685_Custom_setPWM(servo,0,i);
  81              		.loc 1 28 0 discriminator 3
  82 0024 2246     		mov	r2, r4
  83 0026 0021     		movs	r1, #0
  84 0028 2846     		mov	r0, r5
ARM GAS  C:\Users\Barney\AppData\Local\Temp\ccdvqSFK.s 			page 3


  85 002a FFF7FEFF 		bl	PCA9685_Custom_setPWM
  86              	.LVL8:
  29:main.c        ****                 CyDelay(20);
  87              		.loc 1 29 0 discriminator 3
  88 002e 1420     		movs	r0, #20
  89 0030 FFF7FEFF 		bl	CyDelay
  90              	.LVL9:
  27:main.c        ****                 for(uint16_t i =lowLimit ; i<highLimit;i++){
  91              		.loc 1 27 0 discriminator 3
  92 0034 0134     		adds	r4, r4, #1
  93              	.LVL10:
  94 0036 A4B2     		uxth	r4, r4
  95              	.LVL11:
  96 0038 01E0     		b	.L8
  97              	.LVL12:
  98              	.L10:
  99              	.LBE5:
 100 003a 4FF49674 		mov	r4, #300
 101              	.L8:
 102              	.LVL13:
 103              	.LBB6:
  27:main.c        ****                 for(uint16_t i =lowLimit ; i<highLimit;i++){
 104              		.loc 1 27 0 is_stmt 0 discriminator 1
 105 003e B4F5C87F 		cmp	r4, #400
 106 0042 EFD3     		bcc	.L5
 107 0044 4FF4C874 		mov	r4, #400
 108              	.LVL14:
 109 0048 09E0     		b	.L6
 110              	.LVL15:
 111              	.L7:
 112              	.LBE6:
 113              	.LBB7:
  30:main.c        ****                 }
  31:main.c        ****                 for(uint16_t i =highLimit ; i>lowLimit;i--){
  32:main.c        ****                     PCA9685_Custom_setPWM(servo,0,i);
 114              		.loc 1 32 0 is_stmt 1 discriminator 3
 115 004a 2246     		mov	r2, r4
 116 004c 0021     		movs	r1, #0
 117 004e 2846     		mov	r0, r5
 118 0050 FFF7FEFF 		bl	PCA9685_Custom_setPWM
 119              	.LVL16:
  33:main.c        ****                 CyDelay(20);
 120              		.loc 1 33 0 discriminator 3
 121 0054 1420     		movs	r0, #20
 122 0056 FFF7FEFF 		bl	CyDelay
 123              	.LVL17:
  31:main.c        ****                     PCA9685_Custom_setPWM(servo,0,i);
 124              		.loc 1 31 0 discriminator 3
 125 005a 013C     		subs	r4, r4, #1
 126              	.LVL18:
 127 005c A4B2     		uxth	r4, r4
 128              	.LVL19:
 129              	.L6:
  31:main.c        ****                     PCA9685_Custom_setPWM(servo,0,i);
 130              		.loc 1 31 0 is_stmt 0 discriminator 1
 131 005e B4F5967F 		cmp	r4, #300
 132 0062 F2D8     		bhi	.L7
ARM GAS  C:\Users\Barney\AppData\Local\Temp\ccdvqSFK.s 			page 4


 133              	.LBE7:
  26:main.c        ****                 for(uint16_t i =lowLimit ; i<highLimit;i++){
 134              		.loc 1 26 0 is_stmt 1 discriminator 2
 135 0064 0135     		adds	r5, r5, #1
 136              	.LVL20:
 137 0066 EDB2     		uxtb	r5, r5
 138              	.LVL21:
 139              	.L4:
  26:main.c        ****                 for(uint16_t i =lowLimit ; i<highLimit;i++){
 140              		.loc 1 26 0 is_stmt 0 discriminator 1
 141 0068 052D     		cmp	r5, #5
 142 006a E6D9     		bls	.L10
 143 006c D8E7     		b	.L9
 144              	.LBE4:
 145              	.LBE2:
 146              		.cfi_endproc
 147              	.LFE64:
 148              		.size	main, .-main
 149 006e 00BF     		.text
 150              	.Letext0:
 151              		.file 2 "c:\\program files (x86)\\cypress\\psoc creator\\4.2\\psoc creator\\import\\gnu\\arm\\5.4.
 152              		.file 3 "c:\\program files (x86)\\cypress\\psoc creator\\4.2\\psoc creator\\import\\gnu\\arm\\5.4.
 153              		.file 4 "PCA9685_Custom.h"
 154              		.file 5 "Generated_Source\\PSoC5/CyLib.h"
 155              		.file 6 "Generated_Source\\PSoC5/core_cm3.h"