ARM GAS  C:\Users\Barney\AppData\Local\Temp\ccGhVvco.s 			page 1


   1              		.syntax unified
   2              		.cpu cortex-m3
   3              		.fpu softvfp
   4              		.eabi_attribute 20, 1
   5              		.eabi_attribute 21, 1
   6              		.eabi_attribute 23, 3
   7              		.eabi_attribute 24, 1
   8              		.eabi_attribute 25, 1
   9              		.eabi_attribute 26, 1
  10              		.eabi_attribute 30, 1
  11              		.eabi_attribute 34, 1
  12              		.eabi_attribute 18, 4
  13              		.thumb
  14              		.syntax unified
  15              		.file	"PCA9685_Custom.c"
  16              		.text
  17              	.Ltext0:
  18              		.cfi_sections	.debug_frame
  19              		.section	.text.PCA9685_Custom_setPWM,"ax",%progbits
  20              		.align	2
  21              		.global	PCA9685_Custom_setPWM
  22              		.thumb
  23              		.thumb_func
  24              		.type	PCA9685_Custom_setPWM, %function
  25              	PCA9685_Custom_setPWM:
  26              	.LFB66:
  27              		.file 1 "PCA9685_Custom.c"
   1:PCA9685_Custom.c **** /* ========================================
   2:PCA9685_Custom.c ****  *
   3:PCA9685_Custom.c ****  * Copyright YOUR COMPANY, THE YEAR
   4:PCA9685_Custom.c ****  * All Rights Reserved
   5:PCA9685_Custom.c ****  * UNPUBLISHED, LICENSED SOFTWARE.
   6:PCA9685_Custom.c ****  *
   7:PCA9685_Custom.c ****  * CONFIDENTIAL AND PROPRIETARY INFORMATION
   8:PCA9685_Custom.c ****  * WHICH IS THE PROPERTY OF your company.
   9:PCA9685_Custom.c ****  *
  10:PCA9685_Custom.c ****  * ========================================
  11:PCA9685_Custom.c **** */
  12:PCA9685_Custom.c **** #include <PCA9685_Custom.h>
  13:PCA9685_Custom.c **** #include <math.h>
  14:PCA9685_Custom.c **** #define I2C_SLAVE_ADDR      (0x40u)
  15:PCA9685_Custom.c **** 
  16:PCA9685_Custom.c **** //float freq = 1600.0;
  17:PCA9685_Custom.c **** float oscillator_frequency = 27000000;
  18:PCA9685_Custom.c **** 
  19:PCA9685_Custom.c **** //Set servo maximum limits here
  20:PCA9685_Custom.c **** uint16_t Servo_Limit_Low[6]={90,90,90,90,90,90};
  21:PCA9685_Custom.c **** uint16_t Servo_Limit_High[6]={560,560,560,560,560,560};
  22:PCA9685_Custom.c **** 
  23:PCA9685_Custom.c **** void PCA9685_Custom_Begin(){
  24:PCA9685_Custom.c ****     I2C_1_Start();
  25:PCA9685_Custom.c ****     PCA9685_Custom_Reset();
  26:PCA9685_Custom.c ****     PCA9685_Custom_setPWMFreq(60);
  27:PCA9685_Custom.c **** }
  28:PCA9685_Custom.c **** 
  29:PCA9685_Custom.c **** void PCA9685_Custom_Reset(void) {
  30:PCA9685_Custom.c ****  PCA9685_Custom_Write8(PCA9685_MODE1, 0x80);
ARM GAS  C:\Users\Barney\AppData\Local\Temp\ccGhVvco.s 			page 2


  31:PCA9685_Custom.c **** }
  32:PCA9685_Custom.c **** 
  33:PCA9685_Custom.c **** void PCA9685_Custom_setPWM(uint8 num, uint16 on, uint16 off){
  28              		.loc 1 33 0
  29              		.cfi_startproc
  30              		@ args = 0, pretend = 0, frame = 0
  31              		@ frame_needed = 0, uses_anonymous_args = 0
  32              	.LVL0:
  33 0000 70B5     		push	{r4, r5, r6, lr}
  34              		.cfi_def_cfa_offset 16
  35              		.cfi_offset 4, -16
  36              		.cfi_offset 5, -12
  37              		.cfi_offset 6, -8
  38              		.cfi_offset 14, -4
  39 0002 0446     		mov	r4, r0
  40 0004 0E46     		mov	r6, r1
  34:PCA9685_Custom.c ****     
  35:PCA9685_Custom.c ****     //limit servo movement to between low and high limits
  36:PCA9685_Custom.c ****     if(off<Servo_Limit_Low[num]){
  41              		.loc 1 36 0
  42 0006 124B     		ldr	r3, .L4
  43 0008 33F81050 		ldrh	r5, [r3, r0, lsl #1]
  44 000c 9542     		cmp	r5, r2
  45 000e 05D8     		bhi	.L2
  37:PCA9685_Custom.c ****         off=Servo_Limit_Low[num];
  38:PCA9685_Custom.c ****     }
  39:PCA9685_Custom.c ****     else if(off>Servo_Limit_High[num]){
  46              		.loc 1 39 0
  47 0010 03EB4003 		add	r3, r3, r0, lsl #1
  48 0014 9D89     		ldrh	r5, [r3, #12]
  49 0016 AA42     		cmp	r2, r5
  50 0018 00D8     		bhi	.L2
  51 001a 1546     		mov	r5, r2
  52              	.L2:
  53              	.LVL1:
  40:PCA9685_Custom.c ****         off=Servo_Limit_High[num];
  41:PCA9685_Custom.c ****     }
  42:PCA9685_Custom.c ****     else{
  43:PCA9685_Custom.c ****     }
  44:PCA9685_Custom.c ****        
  45:PCA9685_Custom.c ****     I2C_1_MasterSendStart(I2C_SLAVE_ADDR, I2C_WRITE_XFER_MODE);
  54              		.loc 1 45 0
  55 001c 0021     		movs	r1, #0
  56              	.LVL2:
  57 001e 4020     		movs	r0, #64
  58              	.LVL3:
  59 0020 FFF7FEFF 		bl	I2C_1_MasterSendStart
  60              	.LVL4:
  46:PCA9685_Custom.c ****     I2C_1_MasterWriteByte(CH0_ON_L+(0x04*num));
  61              		.loc 1 46 0
  62 0024 A000     		lsls	r0, r4, #2
  63 0026 0630     		adds	r0, r0, #6
  64 0028 00F0FE00 		and	r0, r0, #254
  65 002c FFF7FEFF 		bl	I2C_1_MasterWriteByte
  66              	.LVL5:
  47:PCA9685_Custom.c ****     I2C_1_MasterWriteByte(on);
  67              		.loc 1 47 0
ARM GAS  C:\Users\Barney\AppData\Local\Temp\ccGhVvco.s 			page 3


  68 0030 F0B2     		uxtb	r0, r6
  69 0032 FFF7FEFF 		bl	I2C_1_MasterWriteByte
  70              	.LVL6:
  48:PCA9685_Custom.c ****     I2C_1_MasterWriteByte(on>>8);
  71              		.loc 1 48 0
  72 0036 300A     		lsrs	r0, r6, #8
  73 0038 FFF7FEFF 		bl	I2C_1_MasterWriteByte
  74              	.LVL7:
  49:PCA9685_Custom.c ****     I2C_1_MasterWriteByte(off);
  75              		.loc 1 49 0
  76 003c E8B2     		uxtb	r0, r5
  77 003e FFF7FEFF 		bl	I2C_1_MasterWriteByte
  78              	.LVL8:
  50:PCA9685_Custom.c ****     I2C_1_MasterWriteByte(off>>8);
  79              		.loc 1 50 0
  80 0042 280A     		lsrs	r0, r5, #8
  81 0044 FFF7FEFF 		bl	I2C_1_MasterWriteByte
  82              	.LVL9:
  51:PCA9685_Custom.c ****     I2C_1_MasterSendStop();
  83              		.loc 1 51 0
  84 0048 FFF7FEFF 		bl	I2C_1_MasterSendStop
  85              	.LVL10:
  86 004c 70BD     		pop	{r4, r5, r6, pc}
  87              	.LVL11:
  88              	.L5:
  89 004e 00BF     		.align	2
  90              	.L4:
  91 0050 00000000 		.word	.LANCHOR0
  92              		.cfi_endproc
  93              	.LFE66:
  94              		.size	PCA9685_Custom_setPWM, .-PCA9685_Custom_setPWM
  95              		.section	.text.PCA9685_Custom_Write8,"ax",%progbits
  96              		.align	2
  97              		.global	PCA9685_Custom_Write8
  98              		.thumb
  99              		.thumb_func
 100              		.type	PCA9685_Custom_Write8, %function
 101              	PCA9685_Custom_Write8:
 102              	.LFB68:
  52:PCA9685_Custom.c **** }
  53:PCA9685_Custom.c **** 
  54:PCA9685_Custom.c **** void PCA9685_Custom_setPWMFreq(float freq) {
  55:PCA9685_Custom.c ****   //Serial.print("Attempting to set freq ");
  56:PCA9685_Custom.c ****   //Serial.println(freq);
  57:PCA9685_Custom.c ****   freq *= 0.9;  // Correct for overshoot in the frequency setting (see issue #11).
  58:PCA9685_Custom.c ****   float prescaleval = 25000000;
  59:PCA9685_Custom.c ****   prescaleval /= 4096;
  60:PCA9685_Custom.c ****   prescaleval /= freq;
  61:PCA9685_Custom.c ****   prescaleval -= 1;
  62:PCA9685_Custom.c ****  
  63:PCA9685_Custom.c ****   uint8_t prescale = floor(prescaleval + 0.5);
  64:PCA9685_Custom.c ****    
  65:PCA9685_Custom.c ****   uint8_t oldmode = PCA9685_Custom_Read8(PCA9685_MODE1);
  66:PCA9685_Custom.c ****   uint8_t newmode = (oldmode&0x7F) | 0x10; // sleep
  67:PCA9685_Custom.c ****   PCA9685_Custom_Write8(PCA9685_MODE1, newmode); // go to sleep
  68:PCA9685_Custom.c ****   PCA9685_Custom_Write8(PCA9685_PRESCALE, prescale); // set the prescaler
  69:PCA9685_Custom.c ****   PCA9685_Custom_Write8(PCA9685_MODE1, oldmode);
ARM GAS  C:\Users\Barney\AppData\Local\Temp\ccGhVvco.s 			page 4


  70:PCA9685_Custom.c ****   CyDelayUs(5);  
  71:PCA9685_Custom.c ****   PCA9685_Custom_Write8(PCA9685_MODE1, oldmode | 0xa1);  //  This sets the MODE1 register to turn o
  72:PCA9685_Custom.c **** }
  73:PCA9685_Custom.c **** 
  74:PCA9685_Custom.c **** uint8_t PCA9685_Custom_Write8(uint8_t reg, uint8_t data){
 103              		.loc 1 74 0
 104              		.cfi_startproc
 105              		@ args = 0, pretend = 0, frame = 0
 106              		@ frame_needed = 0, uses_anonymous_args = 0
 107              	.LVL12:
 108 0000 38B5     		push	{r3, r4, r5, lr}
 109              		.cfi_def_cfa_offset 16
 110              		.cfi_offset 3, -16
 111              		.cfi_offset 4, -12
 112              		.cfi_offset 5, -8
 113              		.cfi_offset 14, -4
 114 0002 0446     		mov	r4, r0
 115 0004 0D46     		mov	r5, r1
  75:PCA9685_Custom.c ****     uint8_t Result;
  76:PCA9685_Custom.c ****     if((Result = I2C_1_MasterSendStart(I2C_SLAVE_ADDR, I2C_WRITE_XFER_MODE))) return Result;
 116              		.loc 1 76 0
 117 0006 0021     		movs	r1, #0
 118              	.LVL13:
 119 0008 4020     		movs	r0, #64
 120              	.LVL14:
 121 000a FFF7FEFF 		bl	I2C_1_MasterSendStart
 122              	.LVL15:
 123 000e 50B9     		cbnz	r0, .L8
  77:PCA9685_Custom.c ****     if((Result = I2C_1_MasterWriteByte(reg))) return Result;
 124              		.loc 1 77 0
 125 0010 2046     		mov	r0, r4
 126              	.LVL16:
 127 0012 FFF7FEFF 		bl	I2C_1_MasterWriteByte
 128              	.LVL17:
 129 0016 38B9     		cbnz	r0, .L9
  78:PCA9685_Custom.c ****     if((Result = I2C_1_MasterWriteByte(data))) return Result;
 130              		.loc 1 78 0
 131 0018 2846     		mov	r0, r5
 132              	.LVL18:
 133 001a FFF7FEFF 		bl	I2C_1_MasterWriteByte
 134              	.LVL19:
 135 001e 20B9     		cbnz	r0, .L10
  79:PCA9685_Custom.c ****     if((Result = I2C_1_MasterSendStop())) return Result;
 136              		.loc 1 79 0
 137 0020 FFF7FEFF 		bl	I2C_1_MasterSendStop
 138              	.LVL20:
 139 0024 38BD     		pop	{r3, r4, r5, pc}
 140              	.L8:
 141 0026 38BD     		pop	{r3, r4, r5, pc}
 142              	.L9:
 143 0028 38BD     		pop	{r3, r4, r5, pc}
 144              	.L10:
  80:PCA9685_Custom.c ****     return Result;
  81:PCA9685_Custom.c **** }
 145              		.loc 1 81 0
 146 002a 38BD     		pop	{r3, r4, r5, pc}
 147              		.cfi_endproc
ARM GAS  C:\Users\Barney\AppData\Local\Temp\ccGhVvco.s 			page 5


 148              	.LFE68:
 149              		.size	PCA9685_Custom_Write8, .-PCA9685_Custom_Write8
 150              		.section	.text.PCA9685_Custom_Reset,"ax",%progbits
 151              		.align	2
 152              		.global	PCA9685_Custom_Reset
 153              		.thumb
 154              		.thumb_func
 155              		.type	PCA9685_Custom_Reset, %function
 156              	PCA9685_Custom_Reset:
 157              	.LFB65:
  29:PCA9685_Custom.c ****  PCA9685_Custom_Write8(PCA9685_MODE1, 0x80);
 158              		.loc 1 29 0
 159              		.cfi_startproc
 160              		@ args = 0, pretend = 0, frame = 0
 161              		@ frame_needed = 0, uses_anonymous_args = 0
 162 0000 08B5     		push	{r3, lr}
 163              		.cfi_def_cfa_offset 8
 164              		.cfi_offset 3, -8
 165              		.cfi_offset 14, -4
  30:PCA9685_Custom.c **** }
 166              		.loc 1 30 0
 167 0002 8021     		movs	r1, #128
 168 0004 0020     		movs	r0, #0
 169 0006 FFF7FEFF 		bl	PCA9685_Custom_Write8
 170              	.LVL21:
 171 000a 08BD     		pop	{r3, pc}
 172              		.cfi_endproc
 173              	.LFE65:
 174              		.size	PCA9685_Custom_Reset, .-PCA9685_Custom_Reset
 175              		.section	.text.PCA9685_Custom_Read8,"ax",%progbits
 176              		.align	2
 177              		.global	PCA9685_Custom_Read8
 178              		.thumb
 179              		.thumb_func
 180              		.type	PCA9685_Custom_Read8, %function
 181              	PCA9685_Custom_Read8:
 182              	.LFB69:
  82:PCA9685_Custom.c **** 
  83:PCA9685_Custom.c **** uint8_t PCA9685_Custom_Read8(uint8_t reg){
 183              		.loc 1 83 0
 184              		.cfi_startproc
 185              		@ args = 0, pretend = 0, frame = 0
 186              		@ frame_needed = 0, uses_anonymous_args = 0
 187              	.LVL22:
 188 0000 10B5     		push	{r4, lr}
 189              		.cfi_def_cfa_offset 8
 190              		.cfi_offset 4, -8
 191              		.cfi_offset 14, -4
 192 0002 0446     		mov	r4, r0
 193              	.LVL23:
  84:PCA9685_Custom.c ****   uint8_t response = 0x00;
  85:PCA9685_Custom.c ****   I2C_1_MasterSendStart(I2C_SLAVE_ADDR, I2C_WRITE_XFER_MODE);
 194              		.loc 1 85 0
 195 0004 0021     		movs	r1, #0
 196 0006 4020     		movs	r0, #64
 197              	.LVL24:
 198 0008 FFF7FEFF 		bl	I2C_1_MasterSendStart
ARM GAS  C:\Users\Barney\AppData\Local\Temp\ccGhVvco.s 			page 6


 199              	.LVL25:
  86:PCA9685_Custom.c ****   I2C_1_MasterWriteByte(reg);
 200              		.loc 1 86 0
 201 000c 2046     		mov	r0, r4
 202 000e FFF7FEFF 		bl	I2C_1_MasterWriteByte
 203              	.LVL26:
  87:PCA9685_Custom.c ****   I2C_1_MasterSendRestart(I2C_SLAVE_ADDR, I2C_READ_XFER_MODE);
 204              		.loc 1 87 0
 205 0012 0121     		movs	r1, #1
 206 0014 4020     		movs	r0, #64
 207 0016 FFF7FEFF 		bl	I2C_1_MasterSendRestart
 208              	.LVL27:
  88:PCA9685_Custom.c ****   response =  I2C_1_MasterReadByte(I2C_NAK_DATA);
 209              		.loc 1 88 0
 210 001a 0020     		movs	r0, #0
 211 001c FFF7FEFF 		bl	I2C_1_MasterReadByte
 212              	.LVL28:
 213 0020 0446     		mov	r4, r0
 214              	.LVL29:
  89:PCA9685_Custom.c ****   I2C_1_MasterSendStop();
 215              		.loc 1 89 0
 216 0022 FFF7FEFF 		bl	I2C_1_MasterSendStop
 217              	.LVL30:
  90:PCA9685_Custom.c **** 
  91:PCA9685_Custom.c ****   return response; 
  92:PCA9685_Custom.c **** }
 218              		.loc 1 92 0
 219 0026 2046     		mov	r0, r4
 220 0028 10BD     		pop	{r4, pc}
 221              		.cfi_endproc
 222              	.LFE69:
 223              		.size	PCA9685_Custom_Read8, .-PCA9685_Custom_Read8
 224              		.global	__aeabi_f2d
 225              		.global	__aeabi_dmul
 226              		.global	__aeabi_d2f
 227              		.global	__aeabi_fdiv
 228              		.global	__aeabi_fsub
 229              		.global	__aeabi_dadd
 230              		.global	__aeabi_d2uiz
 231 002a 00BF     		.section	.text.PCA9685_Custom_setPWMFreq,"ax",%progbits
 232              		.align	2
 233              		.global	PCA9685_Custom_setPWMFreq
 234              		.thumb
 235              		.thumb_func
 236              		.type	PCA9685_Custom_setPWMFreq, %function
 237              	PCA9685_Custom_setPWMFreq:
 238              	.LFB67:
  54:PCA9685_Custom.c ****   //Serial.print("Attempting to set freq ");
 239              		.loc 1 54 0
 240              		.cfi_startproc
 241              		@ args = 0, pretend = 0, frame = 0
 242              		@ frame_needed = 0, uses_anonymous_args = 0
 243              	.LVL31:
 244 0000 38B5     		push	{r3, r4, r5, lr}
 245              		.cfi_def_cfa_offset 16
 246              		.cfi_offset 3, -16
 247              		.cfi_offset 4, -12
ARM GAS  C:\Users\Barney\AppData\Local\Temp\ccGhVvco.s 			page 7


 248              		.cfi_offset 5, -8
 249              		.cfi_offset 14, -4
  57:PCA9685_Custom.c ****   float prescaleval = 25000000;
 250              		.loc 1 57 0
 251 0002 FFF7FEFF 		bl	__aeabi_f2d
 252              	.LVL32:
 253 0006 1CA3     		adr	r3, .L18
 254 0008 D3E90023 		ldrd	r2, [r3]
 255 000c FFF7FEFF 		bl	__aeabi_dmul
 256              	.LVL33:
 257 0010 FFF7FEFF 		bl	__aeabi_d2f
 258              	.LVL34:
  60:PCA9685_Custom.c ****   prescaleval -= 1;
 259              		.loc 1 60 0
 260 0014 0146     		mov	r1, r0
 261 0016 1A48     		ldr	r0, .L18+8
 262              	.LVL35:
 263 0018 FFF7FEFF 		bl	__aeabi_fdiv
 264              	.LVL36:
  61:PCA9685_Custom.c ****  
 265              		.loc 1 61 0
 266 001c 4FF07E51 		mov	r1, #1065353216
 267 0020 FFF7FEFF 		bl	__aeabi_fsub
 268              	.LVL37:
  63:PCA9685_Custom.c ****    
 269              		.loc 1 63 0
 270 0024 FFF7FEFF 		bl	__aeabi_f2d
 271              	.LVL38:
 272 0028 0022     		movs	r2, #0
 273 002a 164B     		ldr	r3, .L18+12
 274 002c FFF7FEFF 		bl	__aeabi_dadd
 275              	.LVL39:
 276 0030 FFF7FEFF 		bl	floor
 277              	.LVL40:
 278 0034 FFF7FEFF 		bl	__aeabi_d2uiz
 279              	.LVL41:
 280 0038 C5B2     		uxtb	r5, r0
 281              	.LVL42:
  65:PCA9685_Custom.c ****   uint8_t newmode = (oldmode&0x7F) | 0x10; // sleep
 282              		.loc 1 65 0
 283 003a 0020     		movs	r0, #0
 284 003c FFF7FEFF 		bl	PCA9685_Custom_Read8
 285              	.LVL43:
 286 0040 0446     		mov	r4, r0
 287              	.LVL44:
  66:PCA9685_Custom.c ****   PCA9685_Custom_Write8(PCA9685_MODE1, newmode); // go to sleep
 288              		.loc 1 66 0
 289 0042 00F06F01 		and	r1, r0, #111
 290              	.LVL45:
  67:PCA9685_Custom.c ****   PCA9685_Custom_Write8(PCA9685_PRESCALE, prescale); // set the prescaler
 291              		.loc 1 67 0
 292 0046 41F01001 		orr	r1, r1, #16
 293              	.LVL46:
 294 004a 0020     		movs	r0, #0
 295              	.LVL47:
 296 004c FFF7FEFF 		bl	PCA9685_Custom_Write8
 297              	.LVL48:
ARM GAS  C:\Users\Barney\AppData\Local\Temp\ccGhVvco.s 			page 8


  68:PCA9685_Custom.c ****   PCA9685_Custom_Write8(PCA9685_MODE1, oldmode);
 298              		.loc 1 68 0
 299 0050 2946     		mov	r1, r5
 300 0052 FE20     		movs	r0, #254
 301 0054 FFF7FEFF 		bl	PCA9685_Custom_Write8
 302              	.LVL49:
  69:PCA9685_Custom.c ****   CyDelayUs(5);  
 303              		.loc 1 69 0
 304 0058 2146     		mov	r1, r4
 305 005a 0020     		movs	r0, #0
 306 005c FFF7FEFF 		bl	PCA9685_Custom_Write8
 307              	.LVL50:
  70:PCA9685_Custom.c ****   PCA9685_Custom_Write8(PCA9685_MODE1, oldmode | 0xa1);  //  This sets the MODE1 register to turn o
 308              		.loc 1 70 0
 309 0060 0520     		movs	r0, #5
 310 0062 FFF7FEFF 		bl	CyDelayUs
 311              	.LVL51:
  71:PCA9685_Custom.c **** }
 312              		.loc 1 71 0
 313 0066 64F05E01 		orn	r1, r4, #94
 314 006a C9B2     		uxtb	r1, r1
 315 006c 0020     		movs	r0, #0
 316 006e FFF7FEFF 		bl	PCA9685_Custom_Write8
 317              	.LVL52:
 318 0072 38BD     		pop	{r3, r4, r5, pc}
 319              	.LVL53:
 320              	.L19:
 321 0074 AFF30080 		.align	3
 322              	.L18:
 323 0078 CDCCCCCC 		.word	-858993459
 324 007c CCCCEC3F 		.word	1072483532
 325 0080 20BCBE45 		.word	1170127904
 326 0084 0000E03F 		.word	1071644672
 327              		.cfi_endproc
 328              	.LFE67:
 329              		.size	PCA9685_Custom_setPWMFreq, .-PCA9685_Custom_setPWMFreq
 330              		.section	.text.PCA9685_Custom_Begin,"ax",%progbits
 331              		.align	2
 332              		.global	PCA9685_Custom_Begin
 333              		.thumb
 334              		.thumb_func
 335              		.type	PCA9685_Custom_Begin, %function
 336              	PCA9685_Custom_Begin:
 337              	.LFB64:
  23:PCA9685_Custom.c ****     I2C_1_Start();
 338              		.loc 1 23 0
 339              		.cfi_startproc
 340              		@ args = 0, pretend = 0, frame = 0
 341              		@ frame_needed = 0, uses_anonymous_args = 0
 342 0000 08B5     		push	{r3, lr}
 343              		.cfi_def_cfa_offset 8
 344              		.cfi_offset 3, -8
 345              		.cfi_offset 14, -4
  24:PCA9685_Custom.c ****     PCA9685_Custom_Reset();
 346              		.loc 1 24 0
 347 0002 FFF7FEFF 		bl	I2C_1_Start
 348              	.LVL54:
ARM GAS  C:\Users\Barney\AppData\Local\Temp\ccGhVvco.s 			page 9


  25:PCA9685_Custom.c ****     PCA9685_Custom_setPWMFreq(60);
 349              		.loc 1 25 0
 350 0006 FFF7FEFF 		bl	PCA9685_Custom_Reset
 351              	.LVL55:
  26:PCA9685_Custom.c **** }
 352              		.loc 1 26 0
 353 000a 0248     		ldr	r0, .L22
 354 000c FFF7FEFF 		bl	PCA9685_Custom_setPWMFreq
 355              	.LVL56:
 356 0010 08BD     		pop	{r3, pc}
 357              	.L23:
 358 0012 00BF     		.align	2
 359              	.L22:
 360 0014 00007042 		.word	1114636288
 361              		.cfi_endproc
 362              	.LFE64:
 363              		.size	PCA9685_Custom_Begin, .-PCA9685_Custom_Begin
 364              		.global	Servo_Limit_High
 365              		.global	Servo_Limit_Low
 366              		.global	oscillator_frequency
 367              		.data
 368              		.align	2
 369              		.set	.LANCHOR0,. + 0
 370              		.type	Servo_Limit_Low, %object
 371              		.size	Servo_Limit_Low, 12
 372              	Servo_Limit_Low:
 373 0000 5A00     		.short	90
 374 0002 5A00     		.short	90
 375 0004 5A00     		.short	90
 376 0006 5A00     		.short	90
 377 0008 5A00     		.short	90
 378 000a 5A00     		.short	90
 379              		.type	Servo_Limit_High, %object
 380              		.size	Servo_Limit_High, 12
 381              	Servo_Limit_High:
 382 000c 3002     		.short	560
 383 000e 3002     		.short	560
 384 0010 3002     		.short	560
 385 0012 3002     		.short	560
 386 0014 3002     		.short	560
 387 0016 3002     		.short	560
 388              		.type	oscillator_frequency, %object
 389              		.size	oscillator_frequency, 4
 390              	oscillator_frequency:
 391 0018 60FECD4B 		.word	1271791200
 392              		.text
 393              	.Letext0:
 394              		.file 2 "c:\\program files (x86)\\cypress\\psoc creator\\4.2\\psoc creator\\import\\gnu\\arm\\5.4.
 395              		.file 3 "c:\\program files (x86)\\cypress\\psoc creator\\4.2\\psoc creator\\import\\gnu\\arm\\5.4.
 396              		.file 4 "Generated_Source\\PSoC5/cytypes.h"
 397              		.file 5 "Generated_Source\\PSoC5/core_cm3.h"
 398              		.file 6 "Generated_Source\\PSoC5/I2C_1.h"
 399              		.file 7 "c:\\program files (x86)\\cypress\\psoc creator\\4.2\\psoc creator\\import\\gnu\\arm\\5.4.
 400              		.file 8 "Generated_Source\\PSoC5/CyLib.h"